target datalayout = "e-m:e-p270:32:32-p271:32:32-p272:64:64-i64:64-i128:128-f80:128-n8:16:32:64-S128"
target triple = "x86_64-pc-linux-gnu"

%struct.H5VL_object_t = type { ptr, ptr, i64 }

@H5_libinit_g = external global i8, align 1
@H5_libterm_g = external global i8, align 1
@.str = private unnamed_addr constant [97 x i8] c"generated/home/dtcxzyw/WorkSpace/Projects/compilers/llvm-opt-benchmark/bench/hdf5/hdf5/src/H5A.c\00", align 1
@H5E_FUNC_g = external global i64, align 8
@H5E_CANTINIT_g = external global i64, align 8
@.str.1 = private unnamed_addr constant [30 x i8] c"library initialization failed\00", align 1
@H5E_CANTSET_g = external global i64, align 8
@.str.2 = private unnamed_addr constant [22 x i8] c"can't set API context\00", align 1
@H5E_ATTR_g = external global i64, align 8
@.str.6 = private unnamed_addr constant [9 x i8] c"app_file\00", align 1
@.str.7 = private unnamed_addr constant [9 x i8] c"app_func\00", align 1
@.str.8 = private unnamed_addr constant [9 x i8] c"app_line\00", align 1
@.str.15 = private unnamed_addr constant [6 x i8] c"es_id\00", align 1
@H5E_CANTDEC_g = external global i64, align 8
@H5E_CANTINSERT_g = external global i64, align 8
@.str.17 = private unnamed_addr constant [34 x i8] c"can't insert token into event set\00", align 1
@.str.32 = private unnamed_addr constant [8 x i8] c"attr_id\00", align 1
@H5E_ARGS_g = external global i64, align 8
@H5E_BADTYPE_g = external global i64, align 8
@H5E_CANTGET_g = external global i64, align 8
@.str.73 = private unnamed_addr constant [33 x i8] c"decrementing attribute ID failed\00", align 1
@__func__.H5Aclose_async = private unnamed_addr constant [15 x i8] c"H5Aclose_async\00", align 1
@.str.74 = private unnamed_addr constant [19 x i8] c"not a attribute ID\00", align 1
@.str.75 = private unnamed_addr constant [35 x i8] c"can't get VOL object for attribute\00", align 1
@.str.76 = private unnamed_addr constant [9 x i8] c"*s*sIuii\00", align 1
@.str.77 = private unnamed_addr constant [39 x i8] c"can't decrement ref count on connector\00", align 1

; Function Attrs: nounwind uwtable
define i32 @H5Aclose_async(ptr noundef %0, ptr noundef %1, i32 noundef %2, i64 noundef %3, i64 noundef %4) #0 {
  %6 = alloca ptr, align 8
  %7 = alloca ptr, align 8
  %8 = alloca i32, align 4
  %9 = alloca i64, align 8
  %10 = alloca i64, align 8
  %11 = alloca ptr, align 8
  %12 = alloca ptr, align 8
  %13 = alloca ptr, align 8
  %14 = alloca ptr, align 8
  %15 = alloca i32, align 4
  %16 = alloca i8, align 1
  %17 = alloca i8, align 1
  store ptr %0, ptr %6, align 8
  store ptr %1, ptr %7, align 8
  store i32 %2, ptr %8, align 4
  store i64 %3, ptr %9, align 8
  store i64 %4, ptr %10, align 8
  store ptr null, ptr %11, align 8
  store ptr null, ptr %12, align 8
  store ptr null, ptr %13, align 8
  store ptr null, ptr %14, align 8
  store i32 0, ptr %15, align 4
  store i8 0, ptr %16, align 1
  store i8 0, ptr %17, align 1
  %18 = load i8, ptr @H5_libinit_g, align 1
  %19 = trunc i8 %18 to i1
  br i1 %19, label %24, label %20

20:                                               ; preds = %5
  %21 = load i8, ptr @H5_libterm_g, align 1
  %22 = trunc i8 %21 to i1
  %23 = xor i1 %22, true
  br label %24

24:                                               ; preds = %20, %5
  %25 = phi i1 [ false, %5 ], [ %23, %20 ]
  %26 = xor i1 %25, true
  %27 = xor i1 %26, true
  %28 = zext i1 %27 to i32
  %29 = sext i32 %28 to i64
  %30 = icmp ne i64 %29, 0
  br i1 %30, label %31, label %55

31:                                               ; preds = %24
  %32 = call i32 @H5_init_library()
  %33 = icmp slt i32 %32, 0
  %34 = xor i1 %33, true
  %35 = xor i1 %34, true
  %36 = zext i1 %35 to i32
  %37 = sext i32 %36 to i64
  %38 = icmp ne i64 %37, 0
  br i1 %38, label %39, label %54

39:                                               ; preds = %31
  br label %40

40:                                               ; preds = %39
  br label %41

41:                                               ; preds = %40
  br label %42

42:                                               ; preds = %41
  %43 = load i64, ptr @H5E_FUNC_g, align 8
  %44 = load i64, ptr @H5E_CANTINIT_g, align 8
  %45 = call i32 (ptr, ptr, i32, i64, i64, ptr, ...) @H5E_printf_stack(ptr noundef @.str, ptr noundef @__func__.H5Aclose_async, i32 noundef 2211, i64 noundef %43, i64 noundef %44, ptr noundef @.str.1)
  br label %46

46:                                               ; preds = %42
  store i8 1, ptr %17, align 1
  %47 = load i8, ptr %17, align 1
  %48 = trunc i8 %47 to i1
  %49 = zext i1 %48 to i8
  store i8 %49, ptr %17, align 1
  br label %50

50:                                               ; preds = %46
  br label %51

51:                                               ; preds = %50
  store i32 -1, ptr %15, align 4
  br label %180

52:                                               ; No predecessors!
  br label %53

53:                                               ; preds = %52
  br label %54

54:                                               ; preds = %53, %31
  br label %55

55:                                               ; preds = %54, %24
  %56 = call i32 @H5CX_push()
  %57 = icmp slt i32 %56, 0
  %58 = xor i1 %57, true
  %59 = xor i1 %58, true
  %60 = zext i1 %59 to i32
  %61 = sext i32 %60 to i64
  %62 = icmp ne i64 %61, 0
  br i1 %62, label %63, label %78

63:                                               ; preds = %55
  br label %64

64:                                               ; preds = %63
  br label %65

65:                                               ; preds = %64
  br label %66

66:                                               ; preds = %65
  %67 = load i64, ptr @H5E_FUNC_g, align 8
  %68 = load i64, ptr @H5E_CANTSET_g, align 8
  %69 = call i32 (ptr, ptr, i32, i64, i64, ptr, ...) @H5E_printf_stack(ptr noundef @.str, ptr noundef @__func__.H5Aclose_async, i32 noundef 2211, i64 noundef %67, i64 noundef %68, ptr noundef @.str.2)
  br label %70

70:                                               ; preds = %66
  store i8 1, ptr %17, align 1
  %71 = load i8, ptr %17, align 1
  %72 = trunc i8 %71 to i1
  %73 = zext i1 %72 to i8
  store i8 %73, ptr %17, align 1
  br label %74

74:                                               ; preds = %70
  br label %75

75:                                               ; preds = %74
  store i32 -1, ptr %15, align 4
  br label %180

76:                                               ; No predecessors!
  br label %77

77:                                               ; preds = %76
  br label %79

78:                                               ; preds = %55
  store i8 1, ptr %16, align 1
  br label %79

79:                                               ; preds = %78, %77
  %80 = call i32 @H5E_clear_stack()
  %81 = load i64, ptr %9, align 8
  %82 = call i32 @H5I_get_type(i64 noundef %81)
  %83 = icmp ne i32 7, %82
  br i1 %83, label %84, label %99

84:                                               ; preds = %79
  br label %85

85:                                               ; preds = %84
  br label %86

86:                                               ; preds = %85
  br label %87

87:                                               ; preds = %86
  %88 = load i64, ptr @H5E_ARGS_g, align 8
  %89 = load i64, ptr @H5E_BADTYPE_g, align 8
  %90 = call i32 (ptr, ptr, i32, i64, i64, ptr, ...) @H5E_printf_stack(ptr noundef @.str, ptr noundef @__func__.H5Aclose_async, i32 noundef 2215, i64 noundef %88, i64 noundef %89, ptr noundef @.str.74)
  br label %91

91:                                               ; preds = %87
  store i8 1, ptr %17, align 1
  %92 = load i8, ptr %17, align 1
  %93 = trunc i8 %92 to i1
  %94 = zext i1 %93 to i8
  store i8 %94, ptr %17, align 1
  br label %95

95:                                               ; preds = %91
  br label %96

96:                                               ; preds = %95
  store i32 -1, ptr %15, align 4
  br label %180

97:                                               ; No predecessors!
  br label %98

98:                                               ; preds = %97
  br label %99

99:                                               ; preds = %98, %79
  %100 = load i64, ptr %10, align 8
  %101 = icmp ne i64 0, %100
  br i1 %101, label %102, label %127

102:                                              ; preds = %99
  %103 = load i64, ptr %9, align 8
  %104 = call ptr @H5VL_vol_object(i64 noundef %103)
  store ptr %104, ptr %11, align 8
  %105 = icmp eq ptr null, %104
  br i1 %105, label %106, label %121

106:                                              ; preds = %102
  br label %107

107:                                              ; preds = %106
  br label %108

108:                                              ; preds = %107
  br label %109

109:                                              ; preds = %108
  %110 = load i64, ptr @H5E_ATTR_g, align 8
  %111 = load i64, ptr @H5E_CANTGET_g, align 8
  %112 = call i32 (ptr, ptr, i32, i64, i64, ptr, ...) @H5E_printf_stack(ptr noundef @.str, ptr noundef @__func__.H5Aclose_async, i32 noundef 2221, i64 noundef %110, i64 noundef %111, ptr noundef @.str.75)
  br label %113

113:                                              ; preds = %109
  store i8 1, ptr %17, align 1
  %114 = load i8, ptr %17, align 1
  %115 = trunc i8 %114 to i1
  %116 = zext i1 %115 to i8
  store i8 %116, ptr %17, align 1
  br label %117

117:                                              ; preds = %113
  br label %118

118:                                              ; preds = %117
  store i32 -1, ptr %15, align 4
  br label %180

119:                                              ; No predecessors!
  br label %120

120:                                              ; preds = %119
  br label %121

121:                                              ; preds = %120, %102
  %122 = load ptr, ptr %11, align 8
  %123 = getelementptr inbounds %struct.H5VL_object_t, ptr %122, i32 0, i32 1
  %124 = load ptr, ptr %123, align 8
  store ptr %124, ptr %12, align 8
  %125 = load ptr, ptr %12, align 8
  %126 = call i64 @H5VL_conn_inc_rc(ptr noundef %125)
  store ptr %13, ptr %14, align 8
  br label %127

127:                                              ; preds = %121, %99
  %128 = load i64, ptr %9, align 8
  %129 = load ptr, ptr %14, align 8
  %130 = call i32 @H5I_dec_app_ref_async(i64 noundef %128, ptr noundef %129)
  %131 = icmp slt i32 %130, 0
  br i1 %131, label %132, label %147

132:                                              ; preds = %127
  br label %133

133:                                              ; preds = %132
  br label %134

134:                                              ; preds = %133
  br label %135

135:                                              ; preds = %134
  %136 = load i64, ptr @H5E_ATTR_g, align 8
  %137 = load i64, ptr @H5E_CANTDEC_g, align 8
  %138 = call i32 (ptr, ptr, i32, i64, i64, ptr, ...) @H5E_printf_stack(ptr noundef @.str, ptr noundef @__func__.H5Aclose_async, i32 noundef 2236, i64 noundef %136, i64 noundef %137, ptr noundef @.str.73)
  br label %139

139:                                              ; preds = %135
  store i8 1, ptr %17, align 1
  %140 = load i8, ptr %17, align 1
  %141 = trunc i8 %140 to i1
  %142 = zext i1 %141 to i8
  store i8 %142, ptr %17, align 1
  br label %143

143:                                              ; preds = %139
  br label %144

144:                                              ; preds = %143
  store i32 -1, ptr %15, align 4
  br label %180

145:                                              ; No predecessors!
  br label %146

146:                                              ; preds = %145
  br label %147

147:                                              ; preds = %146, %127
  %148 = load ptr, ptr %13, align 8
  %149 = icmp ne ptr null, %148
  br i1 %149, label %150, label %179

150:                                              ; preds = %147
  %151 = load i64, ptr %10, align 8
  %152 = load ptr, ptr %11, align 8
  %153 = getelementptr inbounds %struct.H5VL_object_t, ptr %152, i32 0, i32 1
  %154 = load ptr, ptr %153, align 8
  %155 = load ptr, ptr %13, align 8
  %156 = load ptr, ptr %6, align 8
  %157 = load ptr, ptr %7, align 8
  %158 = load i32, ptr %8, align 4
  %159 = load i64, ptr %9, align 8
  %160 = load i64, ptr %10, align 8
  %161 = call i32 (i64, ptr, ptr, ptr, ptr, ...) @H5ES_insert(i64 noundef %151, ptr noundef %154, ptr noundef %155, ptr noundef @__func__.H5Aclose_async, ptr noundef @.str.76, ptr noundef @.str.6, ptr noundef %156, ptr noundef @.str.7, ptr noundef %157, ptr noundef @.str.8, i32 noundef %158, ptr noundef @.str.32, i64 noundef %159, ptr noundef @.str.15, i64 noundef %160)
  %162 = icmp slt i32 %161, 0
  br i1 %162, label %163, label %178

163:                                              ; preds = %150
  br label %164

164:                                              ; preds = %163
  br label %165

165:                                              ; preds = %164
  br label %166

166:                                              ; preds = %165
  %167 = load i64, ptr @H5E_ATTR_g, align 8
  %168 = load i64, ptr @H5E_CANTINSERT_g, align 8
  %169 = call i32 (ptr, ptr, i32, i64, i64, ptr, ...) @H5E_printf_stack(ptr noundef @.str, ptr noundef @__func__.H5Aclose_async, i32 noundef 2244, i64 noundef %167, i64 noundef %168, ptr noundef @.str.17)
  br label %170

170:                                              ; preds = %166
  store i8 1, ptr %17, align 1
  %171 = load i8, ptr %17, align 1
  %172 = trunc i8 %171 to i1
  %173 = zext i1 %172 to i8
  store i8 %173, ptr %17, align 1
  br label %174

174:                                              ; preds = %170
  br label %175

175:                                              ; preds = %174
  store i32 -1, ptr %15, align 4
  br label %180

176:                                              ; No predecessors!
  br label %177

177:                                              ; preds = %176
  br label %178

178:                                              ; preds = %177, %150
  br label %179

179:                                              ; preds = %178, %147
  br label %180

180:                                              ; preds = %179, %175, %144, %118, %96, %75, %51
  %181 = load ptr, ptr %12, align 8
  %182 = icmp ne ptr %181, null
  br i1 %182, label %183, label %200

183:                                              ; preds = %180
  %184 = load ptr, ptr %12, align 8
  %185 = call i64 @H5VL_conn_dec_rc(ptr noundef %184)
  %186 = icmp slt i64 %185, 0
  br i1 %186, label %187, label %200

187:                                              ; preds = %183
  br label %188

188:                                              ; preds = %187
  br label %189

189:                                              ; preds = %188
  br label %190

190:                                              ; preds = %189
  %191 = load i64, ptr @H5E_ATTR_g, align 8
  %192 = load i64, ptr @H5E_CANTDEC_g, align 8
  %193 = call i32 (ptr, ptr, i32, i64, i64, ptr, ...) @H5E_printf_stack(ptr noundef @.str, ptr noundef @__func__.H5Aclose_async, i32 noundef 2248, i64 noundef %191, i64 noundef %192, ptr noundef @.str.77)
  br label %194

194:                                              ; preds = %190
  store i8 1, ptr %17, align 1
  %195 = load i8, ptr %17, align 1
  %196 = trunc i8 %195 to i1
  %197 = zext i1 %196 to i8
  store i8 %197, ptr %17, align 1
  br label %198

198:                                              ; preds = %194
  store i32 -1, ptr %15, align 4
  br label %199

199:                                              ; preds = %198
  br label %200

200:                                              ; preds = %199, %183, %180
  %201 = load i8, ptr %16, align 1
  %202 = trunc i8 %201 to i1
  %203 = xor i1 %202, true
  %204 = xor i1 %203, true
  %205 = zext i1 %204 to i32
  %206 = sext i32 %205 to i64
  %207 = icmp ne i64 %206, 0
  br i1 %207, label %208, label %210

208:                                              ; preds = %200
  %209 = call i32 @H5CX_pop(i1 noundef zeroext true)
  store i8 0, ptr %16, align 1
  br label %210

210:                                              ; preds = %208, %200
  %211 = load i8, ptr %17, align 1
  %212 = trunc i8 %211 to i1
  %213 = xor i1 %212, true
  %214 = xor i1 %213, true
  %215 = zext i1 %214 to i32
  %216 = sext i32 %215 to i64
  %217 = icmp ne i64 %216, 0
  br i1 %217, label %218, label %220

218:                                              ; preds = %210
  %219 = call i32 @H5E_dump_api_stack()
  br label %220

220:                                              ; preds = %218, %210
  %221 = load i32, ptr %15, align 4
  ret i32 %221
}