; Function Attrs: nounwind uwtable
define range(i32 -1, 1) i32 @H5Aclose_async(ptr noundef %0, ptr noundef %1, i32 noundef %2, i64 noundef %3, i64 noundef %4) local_unnamed_addr #0 {
  %6 = alloca ptr, align 8
  store ptr null, ptr %6, align 8
  %7 = load i8, ptr @H5_libinit_g, align 1
  %8 = trunc i8 %7 to i1
  %9 = load i8, ptr @H5_libterm_g, align 1
  %10 = trunc i8 %9 to i1
  %11 = select i1 %8, i1 true, i1 %10
  br i1 %11, label %19, label %12

12:                                               ; preds = %5
  %13 = tail call i32 @H5_init_library() #4
  %14 = icmp slt i32 %13, 0
  br i1 %14, label %15, label %19

15:                                               ; preds = %12
  %16 = load i64, ptr @H5E_FUNC_g, align 8
  %17 = load i64, ptr @H5E_CANTINIT_g, align 8
  %18 = tail call i32 (ptr, ptr, i32, i64, i64, ptr, ...) @H5E_printf_stack(ptr noundef nonnull @.str, ptr noundef nonnull @__func__.H5Aclose_async, i32 noundef 2211, i64 noundef %16, i64 noundef %17, ptr noundef nonnull @.str.1) #4
  br label %.thread56

19:                                               ; preds = %12, %5
  %20 = tail call i32 @H5CX_push() #4
  %21 = icmp slt i32 %20, 0
  br i1 %21, label %22, label %26

22:                                               ; preds = %19
  %23 = load i64, ptr @H5E_FUNC_g, align 8
  %24 = load i64, ptr @H5E_CANTSET_g, align 8
  %25 = tail call i32 (ptr, ptr, i32, i64, i64, ptr, ...) @H5E_printf_stack(ptr noundef nonnull @.str, ptr noundef nonnull @__func__.H5Aclose_async, i32 noundef 2211, i64 noundef %23, i64 noundef %24, ptr noundef nonnull @.str.2) #4
  br label %.thread56

26:                                               ; preds = %19
  %27 = tail call i32 @H5E_clear_stack() #4
  %28 = tail call i32 @H5I_get_type(i64 noundef %3) #4
  %.not = icmp eq i32 %28, 7
  br i1 %.not, label %33, label %29

29:                                               ; preds = %26
  %30 = load i64, ptr @H5E_ARGS_g, align 8
  %31 = load i64, ptr @H5E_BADTYPE_g, align 8
  %32 = tail call i32 (ptr, ptr, i32, i64, i64, ptr, ...) @H5E_printf_stack(ptr noundef nonnull @.str, ptr noundef nonnull @__func__.H5Aclose_async, i32 noundef 2215, i64 noundef %30, i64 noundef %31, ptr noundef nonnull @.str.74) #4
  br label %.thread61

33:                                               ; preds = %26
  %.not34 = icmp eq i64 %4, 0
  br i1 %.not34, label %45, label %34

34:                                               ; preds = %33
  %35 = tail call ptr @H5VL_vol_object(i64 noundef %3) #4
  %36 = icmp eq ptr %35, null
  br i1 %36, label %37, label %41

37:                                               ; preds = %34
  %38 = load i64, ptr @H5E_ATTR_g, align 8
  %39 = load i64, ptr @H5E_CANTGET_g, align 8
  %40 = tail call i32 (ptr, ptr, i32, i64, i64, ptr, ...) @H5E_printf_stack(ptr noundef nonnull @.str, ptr noundef nonnull @__func__.H5Aclose_async, i32 noundef 2221, i64 noundef %38, i64 noundef %39, ptr noundef nonnull @.str.75) #4
  br label %.thread61

41:                                               ; preds = %34
  %42 = getelementptr inbounds i8, ptr %35, i64 8
  %43 = load ptr, ptr %42, align 8
  %44 = tail call i64 @H5VL_conn_inc_rc(ptr noundef %43) #4
  br label %45

45:                                               ; preds = %41, %33
  %.031 = phi ptr [ %35, %41 ], [ null, %33 ]
  %.029 = phi ptr [ %43, %41 ], [ null, %33 ]
  %.028 = phi ptr [ %6, %41 ], [ null, %33 ]
  %46 = call i32 @H5I_dec_app_ref_async(i64 noundef %3, ptr noundef %.028) #4
  %47 = icmp slt i32 %46, 0
  br i1 %47, label %48, label %52

48:                                               ; preds = %45
  %49 = load i64, ptr @H5E_ATTR_g, align 8
  %50 = load i64, ptr @H5E_CANTDEC_g, align 8
  %51 = call i32 (ptr, ptr, i32, i64, i64, ptr, ...) @H5E_printf_stack(ptr noundef nonnull @.str, ptr noundef nonnull @__func__.H5Aclose_async, i32 noundef 2236, i64 noundef %49, i64 noundef %50, ptr noundef nonnull @.str.73) #4
  br label %63

52:                                               ; preds = %45
  %53 = load ptr, ptr %6, align 8
  %.not35 = icmp eq ptr %53, null
  br i1 %.not35, label %63, label %54

54:                                               ; preds = %52
  %55 = getelementptr inbounds i8, ptr %.031, i64 8
  %56 = load ptr, ptr %55, align 8
  %57 = call i32 (i64, ptr, ptr, ptr, ptr, ...) @H5ES_insert(i64 noundef %4, ptr noundef %56, ptr noundef nonnull %53, ptr noundef nonnull @__func__.H5Aclose_async, ptr noundef nonnull @.str.76, ptr noundef nonnull @.str.6, ptr noundef %0, ptr noundef nonnull @.str.7, ptr noundef %1, ptr noundef nonnull @.str.8, i32 noundef %2, ptr noundef nonnull @.str.32, i64 noundef %3, ptr noundef nonnull @.str.15, i64 noundef %4) #4
  %58 = icmp slt i32 %57, 0
  br i1 %58, label %59, label %63

59:                                               ; preds = %54
  %60 = load i64, ptr @H5E_ATTR_g, align 8
  %61 = load i64, ptr @H5E_CANTINSERT_g, align 8
  %62 = call i32 (ptr, ptr, i32, i64, i64, ptr, ...) @H5E_printf_stack(ptr noundef nonnull @.str, ptr noundef nonnull @__func__.H5Aclose_async, i32 noundef 2244, i64 noundef %60, i64 noundef %61, ptr noundef nonnull @.str.17) #4
  br label %63

63:                                               ; preds = %52, %54, %59, %48
  %.026 = phi i32 [ -1, %48 ], [ -1, %59 ], [ 0, %54 ], [ 0, %52 ]
  %.0 = phi i1 [ true, %48 ], [ true, %59 ], [ false, %54 ], [ false, %52 ]
  %.not36 = icmp eq ptr %.029, null
  br i1 %.not36, label %72, label %64

64:                                               ; preds = %63
  %65 = call i64 @H5VL_conn_dec_rc(ptr noundef nonnull %.029) #4
  %66 = icmp slt i64 %65, 0
  br i1 %66, label %.thread64, label %72

.thread64:                                        ; preds = %64
  %67 = load i64, ptr @H5E_ATTR_g, align 8
  %68 = load i64, ptr @H5E_CANTDEC_g, align 8
  %69 = call i32 (ptr, ptr, i32, i64, i64, ptr, ...) @H5E_printf_stack(ptr noundef nonnull @.str, ptr noundef nonnull @__func__.H5Aclose_async, i32 noundef 2248, i64 noundef %67, i64 noundef %68, ptr noundef nonnull @.str.77) #4
  %70 = call i32 @H5CX_pop(i1 noundef zeroext true) #4
  br label %.thread56

.thread61:                                        ; preds = %29, %37
  %71 = tail call i32 @H5CX_pop(i1 noundef zeroext true) #4
  br label %.thread56

72:                                               ; preds = %64, %63
  %73 = call i32 @H5CX_pop(i1 noundef zeroext true) #4
  br i1 %.0, label %.thread56, label %75

.thread56:                                        ; preds = %22, %15, %.thread64, %.thread61, %72
  %.1274860 = phi i32 [ %.026, %72 ], [ -1, %.thread61 ], [ -1, %.thread64 ], [ -1, %15 ], [ -1, %22 ]
  %74 = call i32 @H5E_dump_api_stack() #4
  br label %75

75:                                               ; preds = %.thread56, %72
  %.1274859 = phi i32 [ %.1274860, %.thread56 ], [ %.026, %72 ]
  ret i32 %.1274859
}